target datalayout = "e-m:e-p270:32:32-p271:32:32-p272:64:64-i64:64-i128:128-f80:128-n8:16:32:64-S128"
target triple = "x86_64-unknown-linux-gnu"

; Function Attrs: mustprogress nounwind uwtable
define linkonce_odr noundef nonnull align 4 dereferenceable(4) ptr @_ZSt3minIiERKT_S2_S2_(ptr noundef nonnull align 4 dereferenceable(4) %__a, ptr noundef nonnull align 4 dereferenceable(4) %__b) #4 comdat {
entry:
  %retval = alloca ptr, align 8
  %__a.addr = alloca ptr, align 8
  %__b.addr = alloca ptr, align 8
  store ptr %__a, ptr %__a.addr, align 8
  store ptr %__b, ptr %__b.addr, align 8
  %0 = load ptr, ptr %__b.addr, align 8
  %1 = load i32, ptr %0, align 4
  %2 = load ptr, ptr %__a.addr, align 8
  %3 = load i32, ptr %2, align 4
  %cmp = icmp slt i32 %1, %3
  br i1 %cmp, label %if.then, label %if.end

if.then:                                          ; preds = %entry
  %4 = load ptr, ptr %__b.addr, align 8
  store ptr %4, ptr %retval, align 8
  br label %return

if.end:                                           ; preds = %entry
  %5 = load ptr, ptr %__a.addr, align 8
  store ptr %5, ptr %retval, align 8
  br label %return

return:                                           ; preds = %if.end, %if.then
  %6 = load ptr, ptr %retval, align 8
  ret ptr %6
}

; Function Attrs: mustprogress nounwind uwtable
define linkonce_odr hidden noundef i32 @_ZN4absl12lts_2023080213implicit_castIiEET_NS0_8internal8identityIS2_E4typeE(i32 noundef %to) #4 comdat {
entry:
  %to.addr = alloca i32, align 4
  store i32 %to, ptr %to.addr, align 4
  %0 = load i32, ptr %to.addr, align 4
  ret i32 %0
}

; Function Attrs: mustprogress uwtable
define noundef i32 @_ZN6google8protobuf2io18CopyingInputStream4SkipEi(ptr noundef nonnull align 8 dereferenceable(8) %this, i32 noundef %count) unnamed_addr #5 align 2 {
entry:
  %retval = alloca i32, align 4
  %this.addr = alloca ptr, align 8
  %count.addr = alloca i32, align 4
  %junk = alloca [4096 x i8], align 16
  %skipped = alloca i32, align 4
  %bytes = alloca i32, align 4
  %ref.tmp = alloca i32, align 4
  %ref.tmp2 = alloca i32, align 4
  store ptr %this, ptr %this.addr, align 8
  store i32 %count, ptr %count.addr, align 4
  %this1 = load ptr, ptr %this.addr, align 8
  store i32 0, ptr %skipped, align 4
  br label %while.cond

while.cond:                                       ; preds = %if.end, %entry
  %0 = load i32, ptr %skipped, align 4
  %1 = load i32, ptr %count.addr, align 4
  %cmp = icmp slt i32 %0, %1
  br i1 %cmp, label %while.body, label %while.end

while.body:                                       ; preds = %while.cond
  %arraydecay = getelementptr inbounds [4096 x i8], ptr %junk, i64 0, i64 0
  %2 = load i32, ptr %count.addr, align 4
  %3 = load i32, ptr %skipped, align 4
  %sub = sub nsw i32 %2, %3
  store i32 %sub, ptr %ref.tmp, align 4
  %call = call noundef i32 @_ZN4absl12lts_2023080213implicit_castIiEET_NS0_8internal8identityIS2_E4typeE(i32 noundef 4096)
  store i32 %call, ptr %ref.tmp2, align 4
  %call3 = call noundef nonnull align 4 dereferenceable(4) ptr @_ZSt3minIiERKT_S2_S2_(ptr noundef nonnull align 4 dereferenceable(4) %ref.tmp, ptr noundef nonnull align 4 dereferenceable(4) %ref.tmp2)
  %4 = load i32, ptr %call3, align 4
  %vtable = load ptr, ptr %this1, align 8
  %vfn = getelementptr inbounds ptr, ptr %vtable, i64 2
  %5 = load ptr, ptr %vfn, align 8
  %call4 = call noundef i32 %5(ptr noundef nonnull align 8 dereferenceable(8) %this1, ptr noundef %arraydecay, i32 noundef %4)
  store i32 %call4, ptr %bytes, align 4
  %6 = load i32, ptr %bytes, align 4
  %cmp5 = icmp sle i32 %6, 0
  br i1 %cmp5, label %if.then, label %if.end

if.then:                                          ; preds = %while.body
  %7 = load i32, ptr %skipped, align 4
  store i32 %7, ptr %retval, align 4
  br label %return

if.end:                                           ; preds = %while.body
  %8 = load i32, ptr %bytes, align 4
  %9 = load i32, ptr %skipped, align 4
  %add = add nsw i32 %9, %8
  store i32 %add, ptr %skipped, align 4
  br label %while.cond, !llvm.loop !4

while.end:                                        ; preds = %while.cond
  %10 = load i32, ptr %skipped, align 4
  store i32 %10, ptr %retval, align 4
  br label %return

return:                                           ; preds = %while.end, %if.then
  %11 = load i32, ptr %retval, align 4
  ret i32 %11
}