; Function Attrs: mustprogress uwtable
define noundef i32 @_ZN6google8protobuf2io18CopyingInputStream4SkipEi(ptr noundef nonnull align 8 dereferenceable(8) %this, i32 noundef %count) unnamed_addr #5 align 2 {
entry:
  %junk = alloca [4096 x i8], align 16
  %cmp9 = icmp sgt i32 %count, 0
  br i1 %cmp9, label %while.body, label %return

while.cond:                                       ; preds = %while.body
  %add = add nuw nsw i32 %call4, %skipped.010
  %cmp = icmp slt i32 %add, %count
  br i1 %cmp, label %while.body, label %return, !llvm.loop !4

while.body:                                       ; preds = %entry, %while.cond
  %skipped.010 = phi i32 [ %add, %while.cond ], [ 0, %entry ]
  %sub = sub nsw i32 %count, %skipped.010
  %.sroa.speculated = call i32 @llvm.smin.i32(i32 %sub, i32 4096)
  %vtable = load ptr, ptr %this, align 8
  %vfn = getelementptr inbounds i8, ptr %vtable, i64 16
  %0 = load ptr, ptr %vfn, align 8
  %call4 = call noundef i32 %0(ptr noundef nonnull align 8 dereferenceable(8) %this, ptr noundef nonnull %junk, i32 noundef %.sroa.speculated)
  %cmp5 = icmp slt i32 %call4, 1
  br i1 %cmp5, label %return, label %while.cond

return:                                           ; preds = %while.body, %while.cond, %entry
  %skipped.0.lcssa = phi i32 [ 0, %entry ], [ %add, %while.cond ], [ %skipped.010, %while.body ]
  ret i32 %skipped.0.lcssa
}